; Function Attrs: mustprogress uwtable
define hidden void @_ZN19theory_array_params11updt_paramsERK10params_ref(ptr noundef nonnull writeonly align 4 captures(none) dereferenceable(25) %0, ptr noundef nonnull align 8 dereferenceable(8) %1) local_unnamed_addr #3 align 2 personality ptr @__gxx_personality_v0 {
  %3 = alloca %struct.smt_params_helper, align 8
  call void @llvm.lifetime.start.p0(i64 16, ptr nonnull %3) #6
  store ptr %1, ptr %3, align 8, !tbaa !3
  %4 = getelementptr inbounds nuw i8, ptr %3, i64 8
  call void @_ZN7gparams10get_moduleEPKc(ptr dead_on_unwind nonnull writable sret(%class.params_ref) align 8 %4, ptr noundef nonnull @.str.9)
  %5 = load ptr, ptr %3, align 8, !tbaa !8
  %6 = invoke noundef zeroext i1 @_ZNK10params_ref8get_boolEPKcRKS_b(ptr noundef nonnull align 8 dereferenceable(8) %5, ptr noundef nonnull @.str.10, ptr noundef nonnull align 8 dereferenceable(8) %4, i1 noundef zeroext false)
          to label %_ZNK17smt_params_helper10array_weakEv.exit unwind label %13

_ZNK17smt_params_helper10array_weakEv.exit:       ; preds = %2
  %7 = getelementptr inbounds nuw i8, ptr %0, i64 8
  %8 = zext i1 %6 to i8
  store i8 %8, ptr %7, align 4, !tbaa !12
  %9 = load ptr, ptr %3, align 8, !tbaa !8
  %10 = invoke noundef zeroext i1 @_ZNK10params_ref8get_boolEPKcRKS_b(ptr noundef nonnull align 8 dereferenceable(8) %9, ptr noundef nonnull @.str.11, ptr noundef nonnull align 8 dereferenceable(8) %4, i1 noundef zeroext true)
          to label %_ZNK17smt_params_helper17array_extensionalEv.exit unwind label %13

_ZNK17smt_params_helper17array_extensionalEv.exit: ; preds = %_ZNK17smt_params_helper10array_weakEv.exit
  %11 = getelementptr inbounds nuw i8, ptr %0, i64 9
  %12 = zext i1 %10 to i8
  store i8 %12, ptr %11, align 1, !tbaa !17
  call void @_ZN10params_refD1Ev(ptr noundef nonnull align 8 dereferenceable(8) %4) #6
  call void @llvm.lifetime.end.p0(i64 16, ptr nonnull %3) #6
  ret void

13:                                               ; preds = %_ZNK17smt_params_helper10array_weakEv.exit, %2
  %14 = landingpad { ptr, i32 }
          cleanup
  call void @_ZN10params_refD1Ev(ptr noundef nonnull align 8 dereferenceable(8) %4) #6
  call void @llvm.lifetime.end.p0(i64 16, ptr nonnull %3) #6
  resume { ptr, i32 } %14
}